CCS PCM C Compiler, Version 5.025, 8765               13-Jun-22 21:50

               Filename:   D:\IK\OneDrive\Documents\Material\Current\Microcontroller\Project\End-term Project\ServoControl.lst

               ROM used:   1848 words (23%)
                           Largest free fragment is 2048
               RAM used:   29 (8%) at main() level
                           55 (15%) worst case
               Stack used: 4 locations (2 in main + 2 for interrupts)
               Stack size: 8

*
0000:  MOVLW  06
0001:  MOVWF  0A
0002:  GOTO   693
0003:  NOP
0004:  MOVWF  7F
0005:  SWAPF  03,W
0006:  CLRF   03
0007:  MOVWF  21
0008:  MOVF   0A,W
0009:  MOVWF  20
000A:  CLRF   0A
000B:  MOVF   04,W
000C:  MOVWF  22
000D:  MOVF   77,W
000E:  MOVWF  23
000F:  MOVF   78,W
0010:  MOVWF  24
0011:  MOVF   79,W
0012:  MOVWF  25
0013:  MOVF   7A,W
0014:  MOVWF  26
0015:  BSF    03.6
0016:  MOVF   0D,W
0017:  BCF    03.6
0018:  MOVWF  27
0019:  BSF    03.6
001A:  MOVF   0F,W
001B:  BCF    03.6
001C:  MOVWF  28
001D:  BSF    03.6
001E:  MOVF   0C,W
001F:  BCF    03.6
0020:  MOVWF  29
0021:  BSF    03.6
0022:  MOVF   0E,W
0023:  BCF    03.6
0024:  MOVWF  2A
0025:  BCF    03.7
0026:  BCF    03.5
0027:  BTFSS  0B.3
0028:  GOTO   02B
0029:  BTFSC  0B.0
002A:  GOTO   052
002B:  MOVLW  8C
002C:  MOVWF  04
002D:  BTFSS  00.0
002E:  GOTO   031
002F:  BTFSC  0C.0
0030:  GOTO   055
0031:  MOVF   22,W
0032:  MOVWF  04
0033:  MOVF   23,W
0034:  MOVWF  77
0035:  MOVF   24,W
0036:  MOVWF  78
0037:  MOVF   25,W
0038:  MOVWF  79
0039:  MOVF   26,W
003A:  MOVWF  7A
003B:  MOVF   27,W
003C:  BSF    03.6
003D:  MOVWF  0D
003E:  BCF    03.6
003F:  MOVF   28,W
0040:  BSF    03.6
0041:  MOVWF  0F
0042:  BCF    03.6
0043:  MOVF   29,W
0044:  BSF    03.6
0045:  MOVWF  0C
0046:  BCF    03.6
0047:  MOVF   2A,W
0048:  BSF    03.6
0049:  MOVWF  0E
004A:  BCF    03.6
004B:  MOVF   20,W
004C:  MOVWF  0A
004D:  SWAPF  21,W
004E:  MOVWF  03
004F:  SWAPF  7F,F
0050:  SWAPF  7F,W
0051:  RETFIE
0052:  BCF    0A.3
0053:  BCF    0A.4
0054:  GOTO   0D2
0055:  BCF    0A.3
0056:  BCF    0A.4
0057:  GOTO   09E
.................... #INCLUDE <16F887.H> 
.................... //////////// Standard Header file for the PIC16F887 device //////////////// 
.................... /////////////////////////////////////////////////////////////////////////// 
.................... ////        (C) Copyright 1996, 2013 Custom Computer Services          //// 
.................... //// This source code may only be used by licensed users of the CCS C  //// 
.................... //// compiler.  This source code may only be distributed to other      //// 
.................... //// licensed users of the CCS C compiler.  No other use, reproduction //// 
.................... //// or distribution is permitted without written permission.          //// 
.................... //// Derivative programs created using this software in object code    //// 
.................... //// form are not restricted in any way.                               //// 
.................... /////////////////////////////////////////////////////////////////////////// 
.................... #device PIC16F887 
0058:  BCF    0A.0
0059:  BCF    0A.1
005A:  BCF    0A.2
005B:  ADDWF  02,F
005C:  RETLW  F7
005D:  RETLW  C2
005E:  RETLW  7B
005F:  RETLW  E1
0060:  RETLW  A7
0061:  RETLW  EB
0062:  RETLW  BD
0063:  RETLW  F0
0064:  RETLW  CB
0065:  RETLW  F3
0066:  RETLW  D3
0067:  RETLW  F5
0068:  RETLW  47
0069:  RETLW  F7
006A:  RETLW  5E
006B:  RETLW  F8
006C:  RETLW  37
006D:  RETLW  F9
006E:  RETLW  E5
006F:  RETLW  F9
0070:  RETLW  73
0071:  RETLW  FA
0072:  RETLW  E9
0073:  RETLW  FA
0074:  RETLW  4E
0075:  RETLW  FB
0076:  RETLW  A3
0077:  RETLW  FB
0078:  RETLW  EE
0079:  RETLW  FB
007A:  RETLW  2F
007B:  RETLW  FC
007C:  RETLW  68
007D:  RETLW  FC
007E:  RETLW  9B
007F:  RETLW  FC
0080:  RETLW  C9
0081:  RETLW  FC
0082:  RETLW  F2
0083:  RETLW  FC
*
00F5:  DATA 41,27
00F6:  DATA 47,26
00F7:  DATA 45,1D
00F8:  DATA 00,00
00F9:  DATA D6,22
00FA:  DATA CC,27
00FB:  DATA C3,24
00FC:  DATA D4,2C
00FD:  DATA 3A,00
00FE:  DATA D4,22
00FF:  DATA 4D,28
0100:  DATA 45,29
0101:  DATA 41,2A
0102:  DATA 55,29
0103:  DATA 45,1D
0104:  DATA 00,00
*
013D:  MOVLW  8E
013E:  MOVWF  77
013F:  MOVF   3D,W
0140:  MOVWF  78
0141:  MOVF   3C,W
0142:  MOVWF  79
0143:  CLRF   7A
0144:  MOVF   78,F
0145:  BTFSS  03.2
0146:  GOTO   151
0147:  MOVF   79,W
0148:  MOVWF  78
0149:  CLRF   79
014A:  MOVLW  08
014B:  SUBWF  77,F
014C:  MOVF   78,F
014D:  BTFSS  03.2
014E:  GOTO   151
014F:  CLRF   77
0150:  GOTO   159
0151:  BCF    03.0
0152:  BTFSC  78.7
0153:  GOTO   158
0154:  RLF    79,F
0155:  RLF    78,F
0156:  DECF   77,F
0157:  GOTO   151
0158:  BCF    78.7
0159:  RETURN
015A:  MOVF   3C,W
015B:  BTFSC  03.2
015C:  GOTO   21F
015D:  MOVWF  48
015E:  MOVF   40,W
015F:  BTFSC  03.2
0160:  GOTO   21F
0161:  SUBWF  48,F
0162:  BTFSS  03.0
0163:  GOTO   169
0164:  MOVLW  7F
0165:  ADDWF  48,F
0166:  BTFSC  03.0
0167:  GOTO   21F
0168:  GOTO   16F
0169:  MOVLW  81
016A:  SUBWF  48,F
016B:  BTFSS  03.0
016C:  GOTO   21F
016D:  BTFSC  03.2
016E:  GOTO   21F
016F:  MOVF   48,W
0170:  MOVWF  77
0171:  CLRF   78
0172:  CLRF   79
0173:  CLRF   7A
0174:  CLRF   47
0175:  MOVF   3D,W
0176:  MOVWF  46
0177:  BSF    46.7
0178:  MOVF   3E,W
0179:  MOVWF  45
017A:  MOVF   3F,W
017B:  MOVWF  44
017C:  MOVLW  19
017D:  MOVWF  48
017E:  MOVF   43,W
017F:  SUBWF  44,F
0180:  BTFSC  03.0
0181:  GOTO   192
0182:  MOVLW  01
0183:  SUBWF  45,F
0184:  BTFSC  03.0
0185:  GOTO   192
0186:  SUBWF  46,F
0187:  BTFSC  03.0
0188:  GOTO   192
0189:  SUBWF  47,F
018A:  BTFSC  03.0
018B:  GOTO   192
018C:  INCF   47,F
018D:  INCF   46,F
018E:  INCF   45,F
018F:  MOVF   43,W
0190:  ADDWF  44,F
0191:  GOTO   1C4
0192:  MOVF   42,W
0193:  SUBWF  45,F
0194:  BTFSC  03.0
0195:  GOTO   1AD
0196:  MOVLW  01
0197:  SUBWF  46,F
0198:  BTFSC  03.0
0199:  GOTO   1AD
019A:  SUBWF  47,F
019B:  BTFSC  03.0
019C:  GOTO   1AD
019D:  INCF   47,F
019E:  INCF   46,F
019F:  MOVF   42,W
01A0:  ADDWF  45,F
01A1:  MOVF   43,W
01A2:  ADDWF  44,F
01A3:  BTFSS  03.0
01A4:  GOTO   1C4
01A5:  INCF   45,F
01A6:  BTFSS  03.2
01A7:  GOTO   1C4
01A8:  INCF   46,F
01A9:  BTFSS  03.2
01AA:  GOTO   1C4
01AB:  INCF   47,F
01AC:  GOTO   1C4
01AD:  MOVF   41,W
01AE:  IORLW  80
01AF:  SUBWF  46,F
01B0:  BTFSC  03.0
01B1:  GOTO   1C3
01B2:  MOVLW  01
01B3:  SUBWF  47,F
01B4:  BTFSC  03.0
01B5:  GOTO   1C3
01B6:  INCF   47,F
01B7:  MOVF   41,W
01B8:  IORLW  80
01B9:  ADDWF  46,F
01BA:  MOVF   42,W
01BB:  ADDWF  45,F
01BC:  BTFSS  03.0
01BD:  GOTO   1A1
01BE:  INCF   46,F
01BF:  BTFSS  03.2
01C0:  GOTO   1A1
01C1:  INCF   47,F
01C2:  GOTO   1A1
01C3:  BSF    7A.0
01C4:  DECFSZ 48,F
01C5:  GOTO   1C7
01C6:  GOTO   1D2
01C7:  BCF    03.0
01C8:  RLF    44,F
01C9:  RLF    45,F
01CA:  RLF    46,F
01CB:  RLF    47,F
01CC:  BCF    03.0
01CD:  RLF    7A,F
01CE:  RLF    79,F
01CF:  RLF    78,F
01D0:  RLF    49,F
01D1:  GOTO   17E
01D2:  BTFSS  49.0
01D3:  GOTO   1DA
01D4:  BCF    03.0
01D5:  RRF    78,F
01D6:  RRF    79,F
01D7:  RRF    7A,F
01D8:  RRF    49,F
01D9:  GOTO   1DD
01DA:  DECF   77,F
01DB:  BTFSC  03.2
01DC:  GOTO   21F
01DD:  BTFSC  49.7
01DE:  GOTO   206
01DF:  BCF    03.0
01E0:  RLF    44,F
01E1:  RLF    45,F
01E2:  RLF    46,F
01E3:  RLF    47,F
01E4:  MOVF   43,W
01E5:  SUBWF  44,F
01E6:  BTFSC  03.0
01E7:  GOTO   1F2
01E8:  MOVLW  01
01E9:  SUBWF  45,F
01EA:  BTFSC  03.0
01EB:  GOTO   1F2
01EC:  SUBWF  46,F
01ED:  BTFSC  03.0
01EE:  GOTO   1F2
01EF:  SUBWF  47,F
01F0:  BTFSS  03.0
01F1:  GOTO   215
01F2:  MOVF   42,W
01F3:  SUBWF  45,F
01F4:  BTFSC  03.0
01F5:  GOTO   1FD
01F6:  MOVLW  01
01F7:  SUBWF  46,F
01F8:  BTFSC  03.0
01F9:  GOTO   1FD
01FA:  SUBWF  47,F
01FB:  BTFSS  03.0
01FC:  GOTO   215
01FD:  MOVF   41,W
01FE:  IORLW  80
01FF:  SUBWF  46,F
0200:  BTFSC  03.0
0201:  GOTO   206
0202:  MOVLW  01
0203:  SUBWF  47,F
0204:  BTFSS  03.0
0205:  GOTO   215
0206:  INCF   7A,F
0207:  BTFSS  03.2
0208:  GOTO   215
0209:  INCF   79,F
020A:  BTFSS  03.2
020B:  GOTO   215
020C:  INCF   78,F
020D:  BTFSS  03.2
020E:  GOTO   215
020F:  INCF   77,F
0210:  BTFSC  03.2
0211:  GOTO   21F
0212:  RRF    78,F
0213:  RRF    79,F
0214:  RRF    7A,F
0215:  MOVF   3D,W
0216:  MOVWF  48
0217:  MOVF   41,W
0218:  XORWF  48,F
0219:  BTFSS  48.7
021A:  GOTO   21D
021B:  BSF    78.7
021C:  GOTO   223
021D:  BCF    78.7
021E:  GOTO   223
021F:  CLRF   77
0220:  CLRF   78
0221:  CLRF   79
0222:  CLRF   7A
0223:  RETURN
0224:  MOVF   40,W
0225:  BTFSC  03.2
0226:  GOTO   294
0227:  MOVWF  48
0228:  MOVF   44,W
0229:  BTFSC  03.2
022A:  GOTO   294
022B:  ADDWF  48,F
022C:  BTFSC  03.0
022D:  GOTO   235
022E:  MOVLW  7F
022F:  SUBWF  48,F
0230:  BTFSS  03.0
0231:  GOTO   294
0232:  BTFSC  03.2
0233:  GOTO   294
0234:  GOTO   239
0235:  MOVLW  81
0236:  ADDWF  48,F
0237:  BTFSC  03.0
0238:  GOTO   294
0239:  MOVF   48,W
023A:  MOVWF  77
023B:  CLRF   78
023C:  CLRF   79
023D:  CLRF   7A
023E:  MOVF   41,W
023F:  MOVWF  4C
0240:  BSF    4C.7
0241:  MOVF   42,W
0242:  MOVWF  4B
0243:  MOVF   43,W
0244:  MOVWF  4A
0245:  MOVLW  18
0246:  MOVWF  48
0247:  CLRF   49
0248:  BTFSS  4A.0
0249:  GOTO   262
024A:  MOVF   47,W
024B:  ADDWF  7A,F
024C:  BTFSS  03.0
024D:  GOTO   254
024E:  INCF   79,F
024F:  BTFSS  03.2
0250:  GOTO   254
0251:  INCF   78,F
0252:  BTFSC  03.2
0253:  BSF    49.7
0254:  MOVF   46,W
0255:  ADDWF  79,F
0256:  BTFSS  03.0
0257:  GOTO   25B
0258:  INCF   78,F
0259:  BTFSC  03.2
025A:  BSF    49.7
025B:  MOVF   45,W
025C:  MOVWF  42
025D:  BSF    42.7
025E:  MOVF   42,W
025F:  ADDWF  78,F
0260:  BTFSC  03.0
0261:  BSF    49.7
0262:  RLF    49,F
0263:  RRF    78,F
0264:  RRF    79,F
0265:  RRF    7A,F
0266:  RRF    4C,F
0267:  RRF    4B,F
0268:  RRF    4A,F
0269:  BCF    03.0
026A:  DECFSZ 48,F
026B:  GOTO   247
026C:  MOVLW  01
026D:  ADDWF  77,F
026E:  BTFSC  03.0
026F:  GOTO   294
0270:  BTFSC  78.7
0271:  GOTO   279
0272:  RLF    4C,F
0273:  RLF    7A,F
0274:  RLF    79,F
0275:  RLF    78,F
0276:  DECF   77,F
0277:  BTFSC  03.2
0278:  GOTO   294
0279:  BTFSS  4C.7
027A:  GOTO   28A
027B:  INCF   7A,F
027C:  BTFSS  03.2
027D:  GOTO   28A
027E:  INCF   79,F
027F:  BTFSS  03.2
0280:  GOTO   28A
0281:  INCF   78,F
0282:  BTFSS  03.2
0283:  GOTO   28A
0284:  RRF    78,F
0285:  RRF    79,F
0286:  RRF    7A,F
0287:  INCF   77,F
0288:  BTFSC  03.2
0289:  GOTO   294
028A:  MOVF   41,W
028B:  MOVWF  49
028C:  MOVF   45,W
028D:  XORWF  49,F
028E:  BTFSS  49.7
028F:  GOTO   292
0290:  BSF    78.7
0291:  GOTO   298
0292:  BCF    78.7
0293:  GOTO   298
0294:  CLRF   77
0295:  CLRF   78
0296:  CLRF   79
0297:  CLRF   7A
0298:  RETURN
0299:  MOVF   3D,W
029A:  MOVWF  44
029B:  MOVF   41,W
029C:  XORWF  44,F
029D:  BTFSS  44.7
029E:  GOTO   2A4
029F:  BCF    03.2
02A0:  BCF    03.0
02A1:  BTFSC  3D.7
02A2:  BSF    03.0
02A3:  GOTO   2D7
02A4:  MOVF   3D,W
02A5:  MOVWF  44
02A6:  MOVF   40,W
02A7:  MOVWF  45
02A8:  MOVF   3C,W
02A9:  SUBWF  45,F
02AA:  BTFSC  03.2
02AB:  GOTO   2B2
02AC:  BTFSS  44.7
02AD:  GOTO   2D7
02AE:  MOVF   03,W
02AF:  XORLW  01
02B0:  MOVWF  03
02B1:  GOTO   2D7
02B2:  MOVF   41,W
02B3:  MOVWF  45
02B4:  MOVF   3D,W
02B5:  SUBWF  45,F
02B6:  BTFSC  03.2
02B7:  GOTO   2BE
02B8:  BTFSS  44.7
02B9:  GOTO   2D7
02BA:  MOVF   03,W
02BB:  XORLW  01
02BC:  MOVWF  03
02BD:  GOTO   2D7
02BE:  MOVF   42,W
02BF:  MOVWF  45
02C0:  MOVF   3E,W
02C1:  SUBWF  45,F
02C2:  BTFSC  03.2
02C3:  GOTO   2CA
02C4:  BTFSS  44.7
02C5:  GOTO   2D7
02C6:  MOVF   03,W
02C7:  XORLW  01
02C8:  MOVWF  03
02C9:  GOTO   2D7
02CA:  MOVF   43,W
02CB:  MOVWF  45
02CC:  MOVF   3F,W
02CD:  SUBWF  45,F
02CE:  BTFSC  03.2
02CF:  GOTO   2D6
02D0:  BTFSS  44.7
02D1:  GOTO   2D7
02D2:  MOVF   03,W
02D3:  XORLW  01
02D4:  MOVWF  03
02D5:  GOTO   2D7
02D6:  BCF    03.0
02D7:  RETURN
*
030C:  MOVLW  80
030D:  BTFSC  03.1
030E:  XORWF  45,F
030F:  CLRF   4A
0310:  CLRF   4B
0311:  MOVF   41,W
0312:  MOVWF  49
0313:  MOVF   45,W
0314:  XORWF  49,F
0315:  MOVF   40,W
0316:  BTFSC  03.2
0317:  GOTO   3FC
0318:  MOVWF  48
0319:  MOVWF  77
031A:  MOVF   44,W
031B:  BTFSC  03.2
031C:  GOTO   405
031D:  SUBWF  48,F
031E:  BTFSC  03.2
031F:  GOTO   3A1
0320:  BTFSS  03.0
0321:  GOTO   35F
0322:  MOVF   45,W
0323:  MOVWF  4E
0324:  BSF    4E.7
0325:  MOVF   46,W
0326:  MOVWF  4D
0327:  MOVF   47,W
0328:  MOVWF  4C
0329:  CLRF   4B
032A:  BCF    03.0
032B:  RRF    4E,F
032C:  RRF    4D,F
032D:  RRF    4C,F
032E:  RRF    4B,F
032F:  DECFSZ 48,F
0330:  GOTO   329
0331:  BTFSS  49.7
0332:  GOTO   336
0333:  BSF    4A.0
0334:  GOTO   419
0335:  BCF    4A.0
0336:  BCF    48.0
0337:  BSF    4A.4
0338:  MOVLW  43
0339:  MOVWF  04
033A:  BCF    03.7
033B:  GOTO   42E
033C:  BCF    4A.4
033D:  BTFSC  49.7
033E:  GOTO   349
033F:  BTFSS  48.0
0340:  GOTO   354
0341:  RRF    4E,F
0342:  RRF    4D,F
0343:  RRF    4C,F
0344:  RRF    4B,F
0345:  INCF   77,F
0346:  BTFSC  03.2
0347:  GOTO   414
0348:  GOTO   354
0349:  BTFSC  4E.7
034A:  GOTO   357
034B:  BCF    03.0
034C:  RLF    4B,F
034D:  RLF    4C,F
034E:  RLF    4D,F
034F:  RLF    4E,F
0350:  DECF   77,F
0351:  BTFSC  03.2
0352:  GOTO   414
0353:  GOTO   349
0354:  BSF    4A.6
0355:  GOTO   3C1
0356:  BCF    4A.6
0357:  MOVF   41,W
0358:  MOVWF  49
0359:  BTFSS  49.7
035A:  GOTO   35D
035B:  BSF    4E.7
035C:  GOTO   40D
035D:  BCF    4E.7
035E:  GOTO   40D
035F:  MOVF   44,W
0360:  MOVWF  48
0361:  MOVWF  77
0362:  MOVF   40,W
0363:  SUBWF  48,F
0364:  MOVF   41,W
0365:  MOVWF  4E
0366:  BSF    4E.7
0367:  MOVF   42,W
0368:  MOVWF  4D
0369:  MOVF   43,W
036A:  MOVWF  4C
036B:  CLRF   4B
036C:  BCF    03.0
036D:  RRF    4E,F
036E:  RRF    4D,F
036F:  RRF    4C,F
0370:  RRF    4B,F
0371:  DECFSZ 48,F
0372:  GOTO   36B
0373:  BTFSS  49.7
0374:  GOTO   378
0375:  BSF    4A.1
0376:  GOTO   419
0377:  BCF    4A.1
0378:  BCF    48.0
0379:  BSF    4A.5
037A:  MOVLW  47
037B:  MOVWF  04
037C:  BCF    03.7
037D:  GOTO   42E
037E:  BCF    4A.5
037F:  BTFSC  49.7
0380:  GOTO   38B
0381:  BTFSS  48.0
0382:  GOTO   396
0383:  RRF    4E,F
0384:  RRF    4D,F
0385:  RRF    4C,F
0386:  RRF    4B,F
0387:  INCF   77,F
0388:  BTFSC  03.2
0389:  GOTO   414
038A:  GOTO   396
038B:  BTFSC  4E.7
038C:  GOTO   399
038D:  BCF    03.0
038E:  RLF    4B,F
038F:  RLF    4C,F
0390:  RLF    4D,F
0391:  RLF    4E,F
0392:  DECF   77,F
0393:  BTFSC  03.2
0394:  GOTO   414
0395:  GOTO   38B
0396:  BSF    4A.7
0397:  GOTO   3C1
0398:  BCF    4A.7
0399:  MOVF   45,W
039A:  MOVWF  49
039B:  BTFSS  49.7
039C:  GOTO   39F
039D:  BSF    4E.7
039E:  GOTO   40D
039F:  BCF    4E.7
03A0:  GOTO   40D
03A1:  MOVF   45,W
03A2:  MOVWF  4E
03A3:  BSF    4E.7
03A4:  MOVF   46,W
03A5:  MOVWF  4D
03A6:  MOVF   47,W
03A7:  MOVWF  4C
03A8:  BTFSS  49.7
03A9:  GOTO   3AE
03AA:  BCF    4E.7
03AB:  BSF    4A.2
03AC:  GOTO   419
03AD:  BCF    4A.2
03AE:  CLRF   4B
03AF:  BCF    48.0
03B0:  MOVLW  43
03B1:  MOVWF  04
03B2:  BCF    03.7
03B3:  GOTO   42E
03B4:  BTFSC  49.7
03B5:  GOTO   3D7
03B6:  MOVF   41,W
03B7:  MOVWF  49
03B8:  BTFSS  48.0
03B9:  GOTO   3C1
03BA:  RRF    4E,F
03BB:  RRF    4D,F
03BC:  RRF    4C,F
03BD:  RRF    4B,F
03BE:  INCF   77,F
03BF:  BTFSC  03.2
03C0:  GOTO   414
03C1:  BTFSS  4B.7
03C2:  GOTO   3D2
03C3:  INCF   4C,F
03C4:  BTFSS  03.2
03C5:  GOTO   3D2
03C6:  INCF   4D,F
03C7:  BTFSS  03.2
03C8:  GOTO   3D2
03C9:  INCF   4E,F
03CA:  BTFSS  03.2
03CB:  GOTO   3D2
03CC:  RRF    4E,F
03CD:  RRF    4D,F
03CE:  RRF    4C,F
03CF:  INCF   77,F
03D0:  BTFSC  03.2
03D1:  GOTO   414
03D2:  BTFSC  4A.6
03D3:  GOTO   356
03D4:  BTFSC  4A.7
03D5:  GOTO   398
03D6:  GOTO   3F6
03D7:  MOVLW  80
03D8:  XORWF  4E,F
03D9:  BTFSS  4E.7
03DA:  GOTO   3DF
03DB:  GOTO   419
03DC:  MOVF   45,W
03DD:  MOVWF  49
03DE:  GOTO   3EC
03DF:  MOVF   41,W
03E0:  MOVWF  49
03E1:  MOVF   4E,F
03E2:  BTFSS  03.2
03E3:  GOTO   3EC
03E4:  MOVF   4D,F
03E5:  BTFSS  03.2
03E6:  GOTO   3EC
03E7:  MOVF   4C,F
03E8:  BTFSS  03.2
03E9:  GOTO   3EC
03EA:  CLRF   77
03EB:  GOTO   40D
03EC:  BTFSC  4E.7
03ED:  GOTO   3F6
03EE:  BCF    03.0
03EF:  RLF    4B,F
03F0:  RLF    4C,F
03F1:  RLF    4D,F
03F2:  RLF    4E,F
03F3:  DECFSZ 77,F
03F4:  GOTO   3EC
03F5:  GOTO   414
03F6:  BTFSS  49.7
03F7:  GOTO   3FA
03F8:  BSF    4E.7
03F9:  GOTO   40D
03FA:  BCF    4E.7
03FB:  GOTO   40D
03FC:  MOVF   44,W
03FD:  MOVWF  77
03FE:  MOVF   45,W
03FF:  MOVWF  4E
0400:  MOVF   46,W
0401:  MOVWF  4D
0402:  MOVF   47,W
0403:  MOVWF  4C
0404:  GOTO   40D
0405:  MOVF   40,W
0406:  MOVWF  77
0407:  MOVF   41,W
0408:  MOVWF  4E
0409:  MOVF   42,W
040A:  MOVWF  4D
040B:  MOVF   43,W
040C:  MOVWF  4C
040D:  MOVF   4E,W
040E:  MOVWF  78
040F:  MOVF   4D,W
0410:  MOVWF  79
0411:  MOVF   4C,W
0412:  MOVWF  7A
0413:  GOTO   44C
0414:  CLRF   77
0415:  CLRF   78
0416:  CLRF   79
0417:  CLRF   7A
0418:  GOTO   44C
0419:  CLRF   4B
041A:  COMF   4C,F
041B:  COMF   4D,F
041C:  COMF   4E,F
041D:  COMF   4B,F
041E:  INCF   4B,F
041F:  BTFSS  03.2
0420:  GOTO   427
0421:  INCF   4C,F
0422:  BTFSS  03.2
0423:  GOTO   427
0424:  INCF   4D,F
0425:  BTFSC  03.2
0426:  INCF   4E,F
0427:  BTFSC  4A.0
0428:  GOTO   335
0429:  BTFSC  4A.1
042A:  GOTO   377
042B:  BTFSC  4A.2
042C:  GOTO   3AD
042D:  GOTO   3DC
042E:  MOVF   00,W
042F:  ADDWF  4C,F
0430:  BTFSS  03.0
0431:  GOTO   438
0432:  INCF   4D,F
0433:  BTFSS  03.2
0434:  GOTO   438
0435:  INCF   4E,F
0436:  BTFSC  03.2
0437:  BSF    48.0
0438:  DECF   04,F
0439:  MOVF   00,W
043A:  ADDWF  4D,F
043B:  BTFSS  03.0
043C:  GOTO   440
043D:  INCF   4E,F
043E:  BTFSC  03.2
043F:  BSF    48.0
0440:  DECF   04,F
0441:  MOVF   00,W
0442:  BTFSS  00.7
0443:  XORLW  80
0444:  ADDWF  4E,F
0445:  BTFSC  03.0
0446:  BSF    48.0
0447:  BTFSC  4A.4
0448:  GOTO   33C
0449:  BTFSC  4A.5
044A:  GOTO   37E
044B:  GOTO   3B4
*
04DA:  MOVF   0B,W
04DB:  MOVWF  38
04DC:  BCF    0B.7
04DD:  BSF    03.5
04DE:  BSF    03.6
04DF:  BSF    0C.7
04E0:  BSF    0C.0
04E1:  NOP
04E2:  NOP
04E3:  BCF    03.5
04E4:  BCF    03.6
04E5:  BTFSC  38.7
04E6:  BSF    0B.7
04E7:  BSF    03.6
04E8:  MOVF   0C,W
04E9:  ANDLW  7F
04EA:  BTFSC  03.2
04EB:  GOTO   52E
04EC:  BCF    03.6
04ED:  MOVWF  38
04EE:  BSF    03.6
04EF:  MOVF   0D,W
04F0:  BCF    03.6
04F1:  MOVWF  39
04F2:  BSF    03.6
04F3:  MOVF   0F,W
04F4:  BCF    03.6
04F5:  MOVWF  3A
04F6:  MOVF   38,W
04F7:  MOVWF  3B
04F8:  CALL   4C8
04F9:  MOVF   39,W
04FA:  BSF    03.6
04FB:  MOVWF  0D
04FC:  BCF    03.6
04FD:  MOVF   3A,W
04FE:  BSF    03.6
04FF:  MOVWF  0F
0500:  BCF    03.6
0501:  MOVF   0B,W
0502:  MOVWF  3B
0503:  BCF    0B.7
0504:  BSF    03.5
0505:  BSF    03.6
0506:  BSF    0C.7
0507:  BSF    0C.0
0508:  NOP
0509:  NOP
050A:  BCF    03.5
050B:  BCF    03.6
050C:  BTFSC  3B.7
050D:  BSF    0B.7
050E:  BSF    03.6
050F:  RLF    0C,W
0510:  RLF    0E,W
0511:  ANDLW  7F
0512:  BTFSC  03.2
0513:  GOTO   52E
0514:  BCF    03.6
0515:  MOVWF  38
0516:  BSF    03.6
0517:  MOVF   0D,W
0518:  BCF    03.6
0519:  MOVWF  39
051A:  BSF    03.6
051B:  MOVF   0F,W
051C:  BCF    03.6
051D:  MOVWF  3A
051E:  MOVF   38,W
051F:  MOVWF  3B
0520:  CALL   4C8
0521:  MOVF   39,W
0522:  BSF    03.6
0523:  MOVWF  0D
0524:  BCF    03.6
0525:  MOVF   3A,W
0526:  BSF    03.6
0527:  MOVWF  0F
0528:  INCF   0D,F
0529:  BTFSC  03.2
052A:  INCF   0F,F
052B:  BCF    03.6
052C:  GOTO   4DA
052D:  BSF    03.6
052E:  BCF    03.6
052F:  RETURN
0530:  MOVLW  8E
0531:  MOVWF  77
0532:  MOVF   38,W
0533:  SUBWF  77,F
0534:  MOVF   39,W
0535:  MOVWF  79
0536:  MOVF   3A,W
0537:  MOVWF  78
0538:  BSF    79.7
0539:  MOVF   77,F
053A:  BTFSC  03.2
053B:  GOTO   547
053C:  BCF    03.0
053D:  MOVF   79,F
053E:  BTFSS  03.2
053F:  GOTO   543
0540:  MOVF   78,F
0541:  BTFSC  03.2
0542:  GOTO   547
0543:  RRF    79,F
0544:  RRF    78,F
0545:  DECFSZ 77,F
0546:  GOTO   53C
0547:  BTFSS  39.7
0548:  GOTO   54E
0549:  COMF   78,F
054A:  COMF   79,F
054B:  INCF   78,F
054C:  BTFSC  03.2
054D:  INCF   79,F
054E:  RETURN
054F:  MOVF   3A,W
0550:  CLRF   78
0551:  SUBWF  39,W
0552:  BTFSC  03.0
0553:  GOTO   557
0554:  MOVF   39,W
0555:  MOVWF  77
0556:  GOTO   563
0557:  CLRF   77
0558:  MOVLW  08
0559:  MOVWF  3B
055A:  RLF    39,F
055B:  RLF    77,F
055C:  MOVF   3A,W
055D:  SUBWF  77,W
055E:  BTFSC  03.0
055F:  MOVWF  77
0560:  RLF    78,F
0561:  DECFSZ 3B,F
0562:  GOTO   55A
0563:  RETURN
....................  
.................... #list 
....................  
.................... #DEVICE ADC=10 
.................... #FUSES NOWDT, PUT, NOPROTECT, NOLVP 
.................... #USE DELAY(CLOCK=125K) 
.................... #INCLUDE <LIB_LCD.C> 
.................... #IFNDEF LCD_RS 
.................... #DEFINE LCD_RS PIN_E0 
.................... #ENDIF 
.................... #IFNDEF LCD_RW  
.................... #DEFINE LCD_RW PIN_E1 
.................... #ENDIF 
.................... #IFNDEF LCD_E 
.................... #DEFINE LCD_E PIN_E2 
.................... #ENDIF 
.................... #IFNDEF OUTPUT_LCD 
.................... #define OUTPUT_LCD OUTPUT_D 
.................... #ENDIF 
.................... #DEFINE FUNCTION_SET 0X38 //GIAO TIEP 8 BIT, 2 HANG 
.................... #DEFINE DISPLAY_CONTROL 0X0F 
.................... #DEFINE CLEAR_DISPLAY 0X01 
.................... #DEFINE ENTRY_MODE 0X06 
.................... #DEFINE SHIFT_LEFT 0X18 
.................... #DEFINE SHIFT_RIGHT 0X1C 
.................... #DEFINE ADDR_LINE1 0X80 
.................... #DEFINE ADDR_LINE2 0XC0 
.................... VOID LCD_COMMAND(UNSIGNED CHAR MDK){ 
....................    OUTPUT_LOW(LCD_RS); OUTPUT_LCD(MDK); 
*
0105:  BSF    03.5
0106:  BCF    09.0
0107:  BCF    03.5
0108:  BCF    09.0
0109:  BSF    03.5
010A:  CLRF   08
010B:  BCF    03.5
010C:  MOVF   38,W
010D:  MOVWF  08
....................    OUTPUT_HIGH(LCD_E); DELAY_US(1); 
010E:  BSF    03.5
010F:  BCF    09.2
0110:  BCF    03.5
0111:  BSF    09.2
....................    OUTPUT_LOW(LCD_E);  DELAY_US(1); 
0112:  BSF    03.5
0113:  BCF    09.2
0114:  BCF    03.5
0115:  BCF    09.2
0116:  RETURN
.................... } 
.................... VOID LCD_DATA(UNSIGNED CHAR MHT){  
....................    OUTPUT_HIGH(LCD_RS); OUTPUT_LCD(MHT); 
*
04C8:  BSF    03.5
04C9:  BCF    09.0
04CA:  BCF    03.5
04CB:  BSF    09.0
04CC:  BSF    03.5
04CD:  CLRF   08
04CE:  BCF    03.5
04CF:  MOVF   3B,W
04D0:  MOVWF  08
....................    OUTPUT_HIGH(LCD_E);  DELAY_US(1); 
04D1:  BSF    03.5
04D2:  BCF    09.2
04D3:  BCF    03.5
04D4:  BSF    09.2
....................    OUTPUT_LOW(LCD_E);   DELAY_US(1); 
04D5:  BSF    03.5
04D6:  BCF    09.2
04D7:  BCF    03.5
04D8:  BCF    09.2
04D9:  RETURN
.................... } 
.................... VOID LCD_SETUP(){  
....................    OUTPUT_LOW(LCD_E);  
*
0117:  BSF    03.5
0118:  BCF    09.2
0119:  BCF    03.5
011A:  BCF    09.2
....................    OUTPUT_LOW(LCD_RS);  
011B:  BSF    03.5
011C:  BCF    09.0
011D:  BCF    03.5
011E:  BCF    09.0
....................    OUTPUT_LOW(LCD_RW); 
011F:  BSF    03.5
0120:  BCF    09.1
0121:  BCF    03.5
0122:  BCF    09.1
....................    LCD_COMMAND(FUNCTION_SET); DELAY_MS(1); 
0123:  MOVLW  38
0124:  MOVWF  38
0125:  CALL   105
0126:  MOVLW  09
0127:  MOVWF  77
0128:  DECFSZ 77,F
0129:  GOTO   128
012A:  GOTO   12B
012B:  NOP
....................    LCD_COMMAND(DISPLAY_CONTROL); 
012C:  MOVLW  0F
012D:  MOVWF  38
012E:  CALL   105
....................    LCD_COMMAND(CLEAR_DISPLAY); DELAY_MS(2); 
012F:  MOVLW  01
0130:  MOVWF  38
0131:  CALL   105
0132:  MOVLW  14
0133:  MOVWF  77
0134:  DECFSZ 77,F
0135:  GOTO   134
0136:  NOP
....................    LCD_COMMAND(ENTRY_MODE); 
0137:  MOVLW  06
0138:  MOVWF  38
0139:  CALL   105
013A:  BCF    0A.3
013B:  BCF    0A.4
013C:  GOTO   720 (RETURN)
.................... } 
....................  
.................... #INCLUDE <STDBOOL.H> 
.................... /////////////////////////////////////////////////////////////////////////// 
.................... ////                                                                   //// 
.................... ////                          stdbool.h                                //// 
.................... ////                                                                   //// 
.................... //// Standard boolean definitions                                      //// 
.................... ////                                                                   //// 
.................... /////////////////////////////////////////////////////////////////////////// 
.................... ////        (C) Copyright 1996,2012 Custom Computer Services           //// 
.................... //// This source code may only be used by licensed users of the CCS C  //// 
.................... //// compiler.  This source code may only be distributed to other      //// 
.................... //// licensed users of the CCS C compiler.  No other use, reproduction //// 
.................... //// or distribution is permitted without written permission.          //// 
.................... //// Derivative programs created using this software in object code    //// 
.................... //// form are not restricted in any way.                               //// 
.................... /////////////////////////////////////////////////////////////////////////// 
....................  
.................... #ifndef __STDBOOL_H__ 
.................... #define __STDBOOL_H__ 
....................  
.................... //remove TRUE and FALSE added by CCS's device .h file 
.................... #if defined(TRUE) 
.................... #undef TRUE 
.................... #endif 
.................... #if defined(FALSE) 
.................... #undef FALSE 
.................... #endif 
....................  
.................... typedef int1   bool; 
.................... #define true   1 
.................... #define false  0 
.................... #define __bool_true_false_are_defined  1 
....................  
.................... #endif 
....................  
.................... #BIT TMR1IF = 0x0C.0 
.................... #DEFINE PIN_POS_UP     PIN_B0 
.................... #DEFINE PIN_POS_DOWN   PIN_B1 
.................... #DEFINE PIN_VEL_UP     PIN_B2 
.................... #DEFINE PIN_VEL_DOWN   PIN_B3 
....................  
.................... INT16 DUTY = 29; 
.................... FLOAT ANGLE = 0; 
.................... INT VELOCITY = 0; 
.................... INT DIRECTION = 1; 
.................... FLOAT ADC_RES; 
.................... CONST INT16 TIMER_VALUE[20] = {49911, 57723, 60327, 61629, 62411, 62931, 63303, 63582, 63799, 63973, 64115, 64233, 64334, 64419, 64494, 64559, 64616, 64667, 64713, 64754};  
....................  
.................... VOID POS_UP(){ 
....................    IF (DUTY < 75){DUTY = DUTY + 1;} 
*
0084:  MOVF   2C,F
0085:  BTFSS  03.2
0086:  GOTO   08F
0087:  MOVF   2B,W
0088:  SUBLW  4A
0089:  BTFSS  03.0
008A:  GOTO   08F
008B:  MOVLW  01
008C:  ADDWF  2B,F
008D:  BTFSC  03.0
008E:  INCF   2C,F
008F:  RETURN
.................... } 
.................... VOID POS_DOWN(){ 
....................    IF (DUTY > 12){DUTY = DUTY - 1;} 
0090:  MOVF   2C,F
0091:  BTFSS  03.2
0092:  GOTO   097
0093:  MOVF   2B,W
0094:  SUBLW  0C
0095:  BTFSC  03.0
0096:  GOTO   09D
0097:  MOVLW  01
0098:  SUBWF  2B,F
0099:  MOVLW  00
009A:  BTFSS  03.0
009B:  MOVLW  01
009C:  SUBWF  2C,F
009D:  RETURN
.................... } 
....................  
.................... VOID VEL_UP(){ 
....................    IF (VELOCITY < 20){VELOCITY = VELOCITY + 1;} 
*
00E1:  MOVF   31,W
00E2:  SUBLW  13
00E3:  BTFSS  03.0
00E4:  GOTO   0E7
00E5:  MOVLW  01
00E6:  ADDWF  31,F
.................... } 
....................  
.................... VOID VEL_DOWN(){ 
....................    IF (VELOCITY > 0){VELOCITY = VELOCITY - 1;} 
*
00EC:  MOVF   31,F
00ED:  BTFSC  03.2
00EE:  GOTO   0F1
00EF:  MOVLW  01
00F0:  SUBWF  31,F
.................... } 
....................  
.................... #INT_TIMER1 
.................... VOID AUTO_CONTROL(){ 
....................    IF (VELOCITY > 0){ 
*
009E:  MOVF   31,F
009F:  BTFSC  03.2
00A0:  GOTO   0C9
....................       IF (DIRECTION == 1){ 
00A1:  DECFSZ 32,W
00A2:  GOTO   0AC
....................          POS_UP();   IF(DUTY == 75){DIRECTION = 0;} 
00A3:  CALL   084
00A4:  MOVF   2B,W
00A5:  SUBLW  4B
00A6:  BTFSS  03.2
00A7:  GOTO   0AB
00A8:  MOVF   2C,F
00A9:  BTFSC  03.2
00AA:  CLRF   32
....................       } 
00AB:  GOTO   0B6
....................       ELSE { 
....................          POS_DOWN();   IF(DUTY == 12){DIRECTION = 1;} 
00AC:  CALL   090
00AD:  MOVF   2B,W
00AE:  SUBLW  0C
00AF:  BTFSS  03.2
00B0:  GOTO   0B6
00B1:  MOVF   2C,F
00B2:  BTFSS  03.2
00B3:  GOTO   0B6
00B4:  MOVLW  01
00B5:  MOVWF  32
....................       } 
....................       SET_TIMER1(TIMER_VALUE[VELOCITY - 1]); 
00B6:  MOVLW  01
00B7:  SUBWF  31,W
00B8:  MOVWF  77
00B9:  BCF    03.0
00BA:  RLF    77,F
00BB:  MOVF   77,W
00BC:  MOVWF  50
00BD:  INCF   77,W
00BE:  CALL   058
00BF:  MOVWF  7A
00C0:  MOVF   50,W
00C1:  CALL   058
00C2:  MOVWF  50
00C3:  CLRF   0E
00C4:  MOVF   7A,W
00C5:  MOVWF  0F
00C6:  MOVF   50,W
00C7:  MOVWF  0E
....................    } 
00C8:  GOTO   0CE
....................    ELSE{SET_TIMER1(30000);} 
00C9:  CLRF   0E
00CA:  MOVLW  75
00CB:  MOVWF  0F
00CC:  MOVLW  30
00CD:  MOVWF  0E
.................... } 
....................  
00CE:  BCF    0C.0
00CF:  BCF    0A.3
00D0:  BCF    0A.4
00D1:  GOTO   031
.................... #INT_RB 
.................... VOID PORT_B_INT(){ 
....................    IF (INPUT(PIN_POS_UP))     {POS_UP();} 
00D2:  BSF    03.5
00D3:  BSF    06.0
00D4:  BCF    03.5
00D5:  BTFSC  06.0
00D6:  CALL   084
....................    IF (INPUT(PIN_POS_DOWN))   {POS_DOWN();} 
00D7:  BSF    03.5
00D8:  BSF    06.1
00D9:  BCF    03.5
00DA:  BTFSC  06.1
00DB:  CALL   090
....................    IF (INPUT(PIN_VEL_UP))     {VEL_UP();} 
00DC:  BSF    03.5
00DD:  BSF    06.2
00DE:  BCF    03.5
00DF:  BTFSS  06.2
00E0:  GOTO   0E7
....................    IF (INPUT(PIN_VEL_DOWN))   {VEL_DOWN();} 
*
00E7:  BSF    03.5
00E8:  BSF    06.3
00E9:  BCF    03.5
00EA:  BTFSS  06.3
00EB:  GOTO   0F1
*
00F1:  BCF    0B.0
00F2:  BCF    0A.3
00F3:  BCF    0A.4
00F4:  GOTO   031
.................... } 
....................  
.................... VOID ANGLE_TO_DUTY(FLOAT ANGLE_TO_CONVERT){ 
....................    FLOAT DUTY_FLOAT = ((ANGLE_TO_CONVERT)/18.0 + 0.02)*624.0; 
....................    DUTY = (INT16)DUTY_FLOAT; 
.................... } 
....................  
.................... VOID DISPLAY(){ 
....................    LCD_COMMAND(0X80);      DELAY_US(1);  LCD_DATA("ANGLE:"); 
*
0564:  MOVLW  80
0565:  MOVWF  38
0566:  CALL   105
0567:  MOVLW  F5
0568:  BSF    03.6
0569:  MOVWF  0D
056A:  MOVLW  00
056B:  MOVWF  0F
056C:  BCF    03.6
056D:  CALL   4DA
....................    LCD_COMMAND(0X8D);      DELAY_US(1);  LCD_DATA((INT)ANGLE/100%10 + '0'); 
056E:  MOVLW  8D
056F:  MOVWF  38
0570:  CALL   105
0571:  MOVF   30,W
0572:  MOVWF  3B
0573:  MOVF   2F,W
0574:  MOVWF  3A
0575:  MOVF   2E,W
0576:  MOVWF  39
0577:  MOVF   2D,W
0578:  MOVWF  38
0579:  CALL   530
057A:  MOVF   78,W
057B:  MOVWF  39
057C:  MOVLW  64
057D:  MOVWF  3A
057E:  CALL   54F
057F:  MOVF   78,W
0580:  MOVWF  39
0581:  MOVLW  0A
0582:  MOVWF  3A
0583:  CALL   54F
0584:  MOVLW  30
0585:  ADDWF  77,W
0586:  MOVWF  38
0587:  MOVF   38,W
0588:  MOVWF  3B
0589:  CALL   4C8
....................    LCD_COMMAND(0X8E);      DELAY_US(1);  LCD_DATA((INT)ANGLE/10%10 + '0'); 
058A:  MOVLW  8E
058B:  MOVWF  38
058C:  CALL   105
058D:  MOVF   30,W
058E:  MOVWF  3B
058F:  MOVF   2F,W
0590:  MOVWF  3A
0591:  MOVF   2E,W
0592:  MOVWF  39
0593:  MOVF   2D,W
0594:  MOVWF  38
0595:  CALL   530
0596:  MOVF   78,W
0597:  MOVWF  39
0598:  MOVLW  0A
0599:  MOVWF  3A
059A:  CALL   54F
059B:  MOVF   78,W
059C:  MOVWF  39
059D:  MOVLW  0A
059E:  MOVWF  3A
059F:  CALL   54F
05A0:  MOVLW  30
05A1:  ADDWF  77,W
05A2:  MOVWF  38
05A3:  MOVF   38,W
05A4:  MOVWF  3B
05A5:  CALL   4C8
....................    LCD_COMMAND(0X8F);      DELAY_US(1);  LCD_DATA((INT)ANGLE%10 + '0'); 
05A6:  MOVLW  8F
05A7:  MOVWF  38
05A8:  CALL   105
05A9:  MOVF   30,W
05AA:  MOVWF  3B
05AB:  MOVF   2F,W
05AC:  MOVWF  3A
05AD:  MOVF   2E,W
05AE:  MOVWF  39
05AF:  MOVF   2D,W
05B0:  MOVWF  38
05B1:  CALL   530
05B2:  MOVF   78,W
05B3:  MOVWF  39
05B4:  MOVLW  0A
05B5:  MOVWF  3A
05B6:  CALL   54F
05B7:  MOVLW  30
05B8:  ADDWF  77,W
05B9:  MOVWF  38
05BA:  MOVF   38,W
05BB:  MOVWF  3B
05BC:  CALL   4C8
....................    LCD_COMMAND(0X90);      DELAY_US(1);  LCD_DATA('.'); 
05BD:  MOVLW  90
05BE:  MOVWF  38
05BF:  CALL   105
05C0:  MOVLW  2E
05C1:  MOVWF  3B
05C2:  CALL   4C8
....................    LCD_COMMAND(0X91);      DELAY_US(1);  LCD_DATA(((INT)(ANGLE*10))%10 + '0'); 
05C3:  MOVLW  91
05C4:  MOVWF  38
05C5:  CALL   105
05C6:  MOVF   30,W
05C7:  MOVWF  43
05C8:  MOVF   2F,W
05C9:  MOVWF  42
05CA:  MOVF   2E,W
05CB:  MOVWF  41
05CC:  MOVF   2D,W
05CD:  MOVWF  40
05CE:  CLRF   47
05CF:  CLRF   46
05D0:  MOVLW  20
05D1:  MOVWF  45
05D2:  MOVLW  82
05D3:  MOVWF  44
05D4:  CALL   224
05D5:  MOVF   7A,W
05D6:  MOVWF  3B
05D7:  MOVF   79,W
05D8:  MOVWF  3A
05D9:  MOVF   78,W
05DA:  MOVWF  39
05DB:  MOVF   77,W
05DC:  MOVWF  38
05DD:  CALL   530
05DE:  MOVF   78,W
05DF:  MOVWF  39
05E0:  MOVLW  0A
05E1:  MOVWF  3A
05E2:  CALL   54F
05E3:  MOVLW  30
05E4:  ADDWF  77,W
05E5:  MOVWF  38
05E6:  MOVF   38,W
05E7:  MOVWF  3B
05E8:  CALL   4C8
....................    LCD_COMMAND(0XC0);      DELAY_US(1);  LCD_DATA("VELOCITY:"); 
05E9:  MOVLW  C0
05EA:  MOVWF  38
05EB:  CALL   105
05EC:  MOVLW  F9
05ED:  BSF    03.6
05EE:  MOVWF  0D
05EF:  MOVLW  00
05F0:  MOVWF  0F
05F1:  BCF    03.6
05F2:  CALL   4DA
....................    LCD_COMMAND(0XCD);      DELAY_US(1);  LCD_DATA(VELOCITY/100%10 + '0'); 
05F3:  MOVLW  CD
05F4:  MOVWF  38
05F5:  CALL   105
05F6:  MOVF   31,W
05F7:  MOVWF  39
05F8:  MOVLW  64
05F9:  MOVWF  3A
05FA:  CALL   54F
05FB:  MOVF   78,W
05FC:  MOVWF  39
05FD:  MOVLW  0A
05FE:  MOVWF  3A
05FF:  CALL   54F
0600:  MOVLW  30
0601:  ADDWF  77,W
0602:  MOVWF  38
0603:  MOVF   38,W
0604:  MOVWF  3B
0605:  CALL   4C8
....................    LCD_COMMAND(0XCE);      DELAY_US(1);  LCD_DATA(VELOCITY/10%10 + '0'); 
0606:  MOVLW  CE
0607:  MOVWF  38
0608:  CALL   105
0609:  MOVF   31,W
060A:  MOVWF  39
060B:  MOVLW  0A
060C:  MOVWF  3A
060D:  CALL   54F
060E:  MOVF   78,W
060F:  MOVWF  39
0610:  MOVLW  0A
0611:  MOVWF  3A
0612:  CALL   54F
0613:  MOVLW  30
0614:  ADDWF  77,W
0615:  MOVWF  38
0616:  MOVF   38,W
0617:  MOVWF  3B
0618:  CALL   4C8
....................    LCD_COMMAND(0XCF);      DELAY_US(1);  LCD_DATA(VELOCITY%10 + '0'); 
0619:  MOVLW  CF
061A:  MOVWF  38
061B:  CALL   105
061C:  MOVF   31,W
061D:  MOVWF  39
061E:  MOVLW  0A
061F:  MOVWF  3A
0620:  CALL   54F
0621:  MOVLW  30
0622:  ADDWF  77,W
0623:  MOVWF  38
0624:  MOVF   38,W
0625:  MOVWF  3B
0626:  CALL   4C8
....................    LCD_COMMAND(0X94);      DELAY_US(1);  LCD_DATA("TEMPERATURE:"); 
0627:  MOVLW  94
0628:  MOVWF  38
0629:  CALL   105
062A:  MOVLW  FE
062B:  BSF    03.6
062C:  MOVWF  0D
062D:  MOVLW  00
062E:  MOVWF  0F
062F:  BCF    03.6
0630:  CALL   4DA
....................    LCD_COMMAND(0XA1);      DELAY_US(1);  LCD_DATA(((INT) ADC_RES)/10%10 + '0'); 
0631:  MOVLW  A1
0632:  MOVWF  38
0633:  CALL   105
0634:  MOVF   36,W
0635:  MOVWF  3B
0636:  MOVF   35,W
0637:  MOVWF  3A
0638:  MOVF   34,W
0639:  MOVWF  39
063A:  MOVF   33,W
063B:  MOVWF  38
063C:  CALL   530
063D:  MOVF   78,W
063E:  MOVWF  39
063F:  MOVLW  0A
0640:  MOVWF  3A
0641:  CALL   54F
0642:  MOVF   78,W
0643:  MOVWF  39
0644:  MOVLW  0A
0645:  MOVWF  3A
0646:  CALL   54F
0647:  MOVLW  30
0648:  ADDWF  77,W
0649:  MOVWF  38
064A:  MOVF   38,W
064B:  MOVWF  3B
064C:  CALL   4C8
....................    LCD_COMMAND(0XA2);      DELAY_US(1);  LCD_DATA(((INT) ADC_RES)%10 + '0'); 
064D:  MOVLW  A2
064E:  MOVWF  38
064F:  CALL   105
0650:  MOVF   36,W
0651:  MOVWF  3B
0652:  MOVF   35,W
0653:  MOVWF  3A
0654:  MOVF   34,W
0655:  MOVWF  39
0656:  MOVF   33,W
0657:  MOVWF  38
0658:  CALL   530
0659:  MOVF   78,W
065A:  MOVWF  39
065B:  MOVLW  0A
065C:  MOVWF  3A
065D:  CALL   54F
065E:  MOVLW  30
065F:  ADDWF  77,W
0660:  MOVWF  38
0661:  MOVF   38,W
0662:  MOVWF  3B
0663:  CALL   4C8
....................    LCD_COMMAND(0XA3);      DELAY_US(1);  LCD_DATA('.'); 
0664:  MOVLW  A3
0665:  MOVWF  38
0666:  CALL   105
0667:  MOVLW  2E
0668:  MOVWF  3B
0669:  CALL   4C8
....................    LCD_COMMAND(0XA4);      DELAY_US(1);  LCD_DATA(((INT)(ADC_RES*10))%10 + '0'); 
066A:  MOVLW  A4
066B:  MOVWF  38
066C:  CALL   105
066D:  MOVF   36,W
066E:  MOVWF  43
066F:  MOVF   35,W
0670:  MOVWF  42
0671:  MOVF   34,W
0672:  MOVWF  41
0673:  MOVF   33,W
0674:  MOVWF  40
0675:  CLRF   47
0676:  CLRF   46
0677:  MOVLW  20
0678:  MOVWF  45
0679:  MOVLW  82
067A:  MOVWF  44
067B:  CALL   224
067C:  MOVF   7A,W
067D:  MOVWF  3B
067E:  MOVF   79,W
067F:  MOVWF  3A
0680:  MOVF   78,W
0681:  MOVWF  39
0682:  MOVF   77,W
0683:  MOVWF  38
0684:  CALL   530
0685:  MOVF   78,W
0686:  MOVWF  39
0687:  MOVLW  0A
0688:  MOVWF  3A
0689:  CALL   54F
068A:  MOVLW  30
068B:  ADDWF  77,W
068C:  MOVWF  38
068D:  MOVF   38,W
068E:  MOVWF  3B
068F:  CALL   4C8
0690:  BCF    0A.3
0691:  BCF    0A.4
0692:  GOTO   736 (RETURN)
.................... } 
....................  
.................... VOID READ_TEMPERATURE(){ 
....................    ADC_RES = READ_ADC(); 
*
0498:  BSF    1F.1
0499:  BTFSC  1F.1
049A:  GOTO   499
049B:  MOVF   1E,W
049C:  MOVWF  7A
049D:  BSF    03.5
049E:  MOVF   1E,W
049F:  BCF    03.5
04A0:  MOVWF  3C
04A1:  MOVF   1E,W
04A2:  MOVWF  3D
04A3:  CALL   13D
04A4:  MOVF   7A,W
04A5:  MOVWF  36
04A6:  MOVF   79,W
04A7:  MOVWF  35
04A8:  MOVF   78,W
04A9:  MOVWF  34
04AA:  MOVF   77,W
04AB:  MOVWF  33
....................    ADC_RES = ADC_RES/2.046;    
04AC:  MOVF   36,W
04AD:  MOVWF  3F
04AE:  MOVF   35,W
04AF:  MOVWF  3E
04B0:  MOVF   34,W
04B1:  MOVWF  3D
04B2:  MOVF   33,W
04B3:  MOVWF  3C
04B4:  MOVLW  AA
04B5:  MOVWF  43
04B6:  MOVLW  F1
04B7:  MOVWF  42
04B8:  MOVLW  02
04B9:  MOVWF  41
04BA:  MOVLW  80
04BB:  MOVWF  40
04BC:  CALL   15A
04BD:  MOVF   7A,W
04BE:  MOVWF  36
04BF:  MOVF   79,W
04C0:  MOVWF  35
04C1:  MOVF   78,W
04C2:  MOVWF  34
04C3:  MOVF   77,W
04C4:  MOVWF  33
04C5:  BCF    0A.3
04C6:  BCF    0A.4
04C7:  GOTO   735 (RETURN)
.................... } 
....................  
.................... VOID DUTY_TO_ANGLE(){ 
*
02D8:  MOVF   2C,W
02D9:  MOVWF  3D
02DA:  MOVF   2B,W
02DB:  MOVWF  3C
02DC:  CALL   13D
02DD:  MOVF   7A,W
02DE:  MOVWF  3B
02DF:  MOVF   79,W
02E0:  MOVWF  3A
02E1:  MOVF   78,W
02E2:  MOVWF  39
02E3:  MOVF   77,W
02E4:  MOVWF  38
....................    FLOAT DUTY_FLOAT = (FLOAT)DUTY; 
....................    ANGLE = (DUTY_FLOAT/6.24 - 2.0)*18.0; 
02E5:  MOVF   3B,W
02E6:  MOVWF  3F
02E7:  MOVF   3A,W
02E8:  MOVWF  3E
02E9:  MOVF   39,W
02EA:  MOVWF  3D
02EB:  MOVF   38,W
02EC:  MOVWF  3C
02ED:  MOVLW  14
02EE:  MOVWF  43
02EF:  MOVLW  AE
02F0:  MOVWF  42
02F1:  MOVLW  47
02F2:  MOVWF  41
02F3:  MOVLW  81
02F4:  MOVWF  40
02F5:  CALL   15A
02F6:  MOVF   7A,W
02F7:  MOVWF  3F
02F8:  MOVF   79,W
02F9:  MOVWF  3E
02FA:  MOVF   78,W
02FB:  MOVWF  3D
02FC:  MOVF   77,W
02FD:  MOVWF  3C
02FE:  BSF    03.1
02FF:  MOVF   3F,W
0300:  MOVWF  43
0301:  MOVF   3E,W
0302:  MOVWF  42
0303:  MOVF   3D,W
0304:  MOVWF  41
0305:  MOVF   3C,W
0306:  MOVWF  40
0307:  CLRF   47
0308:  CLRF   46
0309:  CLRF   45
030A:  MOVLW  80
030B:  MOVWF  44
*
044C:  MOVF   7A,W
044D:  MOVWF  3F
044E:  MOVF   79,W
044F:  MOVWF  3E
0450:  MOVF   78,W
0451:  MOVWF  3D
0452:  MOVF   77,W
0453:  MOVWF  3C
0454:  MOVF   7A,W
0455:  MOVWF  43
0456:  MOVF   79,W
0457:  MOVWF  42
0458:  MOVF   78,W
0459:  MOVWF  41
045A:  MOVF   77,W
045B:  MOVWF  40
045C:  CLRF   47
045D:  CLRF   46
045E:  MOVLW  10
045F:  MOVWF  45
0460:  MOVLW  83
0461:  MOVWF  44
0462:  CALL   224
0463:  MOVF   7A,W
0464:  MOVWF  30
0465:  MOVF   79,W
0466:  MOVWF  2F
0467:  MOVF   78,W
0468:  MOVWF  2E
0469:  MOVF   77,W
046A:  MOVWF  2D
....................    IF (ANGLE < 0){ANGLE = 0;} 
046B:  MOVF   30,W
046C:  MOVWF  3F
046D:  MOVF   2F,W
046E:  MOVWF  3E
046F:  MOVF   2E,W
0470:  MOVWF  3D
0471:  MOVF   2D,W
0472:  MOVWF  3C
0473:  CLRF   43
0474:  CLRF   42
0475:  CLRF   41
0476:  CLRF   40
0477:  CALL   299
0478:  BTFSS  03.0
0479:  GOTO   47E
047A:  CLRF   30
047B:  CLRF   2F
047C:  CLRF   2E
047D:  CLRF   2D
....................    IF (ANGLE > 180){ANGLE = 180;} 
047E:  CLRF   3F
047F:  CLRF   3E
0480:  MOVLW  34
0481:  MOVWF  3D
0482:  MOVLW  86
0483:  MOVWF  3C
0484:  MOVF   30,W
0485:  MOVWF  43
0486:  MOVF   2F,W
0487:  MOVWF  42
0488:  MOVF   2E,W
0489:  MOVWF  41
048A:  MOVF   2D,W
048B:  MOVWF  40
048C:  CALL   299
048D:  BTFSS  03.0
048E:  GOTO   495
048F:  CLRF   30
0490:  CLRF   2F
0491:  MOVLW  34
0492:  MOVWF  2E
0493:  MOVLW  86
0494:  MOVWF  2D
0495:  BCF    0A.3
0496:  BCF    0A.4
0497:  GOTO   734 (RETURN)
.................... } 
....................  
.................... VOID MAIN(){ 
*
0693:  MOVF   03,W
0694:  ANDLW  1F
0695:  MOVWF  03
0696:  CLRF   2C
0697:  MOVLW  1D
0698:  MOVWF  2B
0699:  CLRF   30
069A:  CLRF   2F
069B:  CLRF   2E
069C:  CLRF   2D
069D:  CLRF   31
069E:  MOVLW  01
069F:  MOVWF  32
06A0:  MOVLW  FF
06A1:  MOVWF  37
06A2:  BSF    03.5
06A3:  BSF    03.6
06A4:  MOVF   09,W
06A5:  ANDLW  C0
06A6:  MOVWF  09
06A7:  BCF    03.6
06A8:  BCF    1F.4
06A9:  BCF    1F.5
06AA:  MOVLW  00
06AB:  BSF    03.6
06AC:  MOVWF  08
06AD:  BCF    03.5
06AE:  CLRF   07
06AF:  CLRF   08
06B0:  CLRF   09
06B1:  BCF    03.7
....................    // OSCILLATOR SETUP 
....................    SETUP_OSCILLATOR(0x11); 
06B2:  MOVLW  11
06B3:  BSF    03.5
06B4:  BCF    03.6
06B5:  MOVWF  0F
06B6:  CLRF   10
06B7:  MOVF   0F,W
....................     
....................    // TIMER SETUP 
....................    SETUP_TIMER_1(T1_INTERNAL | T1_DIV_BY_1); 
06B8:  MOVLW  05
06B9:  BCF    03.5
06BA:  MOVWF  10
....................    SET_TIMER1(60000); 
06BB:  CLRF   0E
06BC:  MOVLW  EA
06BD:  MOVWF  0F
06BE:  MOVLW  60
06BF:  MOVWF  0E
....................    // PORT SETUP 
....................    SET_TRIS_C(0x00); 
06C0:  MOVLW  00
06C1:  BSF    03.5
06C2:  MOVWF  07
06C3:  BCF    03.5
06C4:  MOVWF  37
....................    SET_TRIS_A(0xFF); 
06C5:  MOVLW  FF
06C6:  BSF    03.5
06C7:  MOVWF  05
....................    SET_TRIS_B(0xFF); 
06C8:  MOVWF  06
....................     
....................    // INTERRUPTS SETUP 
....................    ENABLE_INTERRUPTS(GLOBAL); 
06C9:  MOVLW  C0
06CA:  BCF    03.5
06CB:  IORWF  0B,F
....................    ENABLE_INTERRUPTS(INT_RB0); 
06CC:  BSF    0B.3
06CD:  BSF    03.5
06CE:  BSF    16.0
....................    ENABLE_INTERRUPTS(INT_RB1); 
06CF:  BCF    03.5
06D0:  BSF    0B.3
06D1:  BSF    03.5
06D2:  BSF    16.1
....................    ENABLE_INTERRUPTS(INT_RB2); 
06D3:  BCF    03.5
06D4:  BSF    0B.3
06D5:  BSF    03.5
06D6:  BSF    16.2
....................    ENABLE_INTERRUPTS(INT_RB3); 
06D7:  BCF    03.5
06D8:  BSF    0B.3
06D9:  BSF    03.5
06DA:  BSF    16.3
....................    ENABLE_INTERRUPTS(INT_TIMER1); 
06DB:  BSF    0C.0
....................     
....................    // ADC SETUP 
....................    SETUP_ADC(ADC_CLOCK_DIV_8); 
06DC:  BCF    03.5
06DD:  BSF    1F.6
06DE:  BCF    1F.7
06DF:  BSF    03.5
06E0:  BSF    1F.7
06E1:  BCF    03.5
06E2:  BSF    1F.0
....................    SETUP_ADC_PORTS(SAN0); 
06E3:  BSF    03.5
06E4:  BSF    03.6
06E5:  MOVF   09,W
06E6:  ANDLW  C0
06E7:  MOVWF  09
06E8:  BCF    03.6
06E9:  BCF    1F.4
06EA:  BCF    1F.5
06EB:  MOVLW  01
06EC:  BSF    03.6
06ED:  MOVWF  08
....................    SET_ADC_CHANNEL(0); 
06EE:  MOVLW  00
06EF:  MOVWF  78
06F0:  BCF    03.5
06F1:  BCF    03.6
06F2:  MOVF   1F,W
06F3:  ANDLW  C3
06F4:  IORWF  78,W
06F5:  MOVWF  1F
....................     
....................    // PWM SETUP 
....................    SETUP_CCP1(CCP_PWM);  
06F6:  BCF    37.2
06F7:  MOVF   37,W
06F8:  BSF    03.5
06F9:  MOVWF  07
06FA:  BCF    03.5
06FB:  BCF    07.2
06FC:  MOVLW  0C
06FD:  MOVWF  17
06FE:  BSF    03.5
06FF:  CLRF   1B
0700:  CLRF   1C
0701:  MOVLW  01
0702:  MOVWF  1D
....................    SETUP_TIMER_2(T2_DIV_BY_4,155,1); 
0703:  MOVLW  00
0704:  MOVWF  78
0705:  IORLW  05
0706:  BCF    03.5
0707:  MOVWF  12
0708:  MOVLW  9B
0709:  BSF    03.5
070A:  MOVWF  12
....................    SET_PWM1_DUTY(DUTY); 
070B:  BCF    03.5
070C:  MOVF   2C,W
070D:  MOVWF  79
070E:  MOVF   2B,W
070F:  MOVWF  78
0710:  RRF    79,F
0711:  RRF    78,F
0712:  RRF    79,F
0713:  RRF    78,F
0714:  RRF    79,F
0715:  MOVF   78,W
0716:  MOVWF  15
0717:  RRF    79,F
0718:  RRF    79,W
0719:  ANDLW  30
071A:  MOVWF  77
071B:  MOVF   17,W
071C:  ANDLW  CF
071D:  IORWF  77,W
071E:  MOVWF  17
....................     
....................    // LCD SETUP 
....................    LCD_SETUP(); 
071F:  GOTO   117
....................    WHILE(TRUE){ 
....................       SET_PWM1_DUTY(DUTY); 
0720:  MOVF   2C,W
0721:  MOVWF  79
0722:  MOVF   2B,W
0723:  MOVWF  78
0724:  RRF    79,F
0725:  RRF    78,F
0726:  RRF    79,F
0727:  RRF    78,F
0728:  RRF    79,F
0729:  MOVF   78,W
072A:  MOVWF  15
072B:  RRF    79,F
072C:  RRF    79,W
072D:  ANDLW  30
072E:  MOVWF  77
072F:  MOVF   17,W
0730:  ANDLW  CF
0731:  IORWF  77,W
0732:  MOVWF  17
....................       DUTY_TO_ANGLE(); 
0733:  GOTO   2D8
....................       READ_TEMPERATURE(); 
0734:  GOTO   498
....................       DISPLAY(); 
0735:  GOTO   564
0736:  GOTO   720
....................    } 
.................... } 
....................  
0737:  SLEEP
....................  
....................  
....................  

Configuration Fuses:
   Word  1: 2FE7   RC NOWDT PUT MCLR NOPROTECT NOCPD BROWNOUT IESO FCMEN NOLVP NODEBUG
   Word  2: 3FFF   BORV40 NOWRT
